target datalayout = "e-m:e-p270:32:32-p271:32:32-p272:64:64-i64:64-i128:128-f80:128-n8:16:32:64-S128"
target triple = "x86_64-pc-linux-gnu"

%struct.VLC = type { i32, ptr, i32, i32 }
%struct.VLCElem = type { %union.anon.1 }
%union.anon.1 = type { %struct.anon }
%struct.anon = type { i16, i16 }

@qdm2_table = internal global [3838 x %struct.VLCElem] zeroinitializer, align 16

; Function Attrs: cold nounwind optsize uwtable
define internal void @build_vlc(ptr noundef %0, i32 noundef %1, i32 noundef %2, ptr noundef %3, ptr noundef %4) #0 {
  %6 = alloca ptr, align 8
  %7 = alloca i32, align 4
  %8 = alloca i32, align 4
  %9 = alloca ptr, align 8
  %10 = alloca ptr, align 8
  store ptr %0, ptr %6, align 8, !tbaa !93
  store i32 %1, ptr %7, align 4, !tbaa !36
  store i32 %2, ptr %8, align 4, !tbaa !36
  store ptr %3, ptr %9, align 8, !tbaa !58
  store ptr %4, ptr %10, align 8, !tbaa !63
  %11 = load ptr, ptr %9, align 8, !tbaa !58
  %12 = load i32, ptr %11, align 4, !tbaa !36
  %13 = zext i32 %12 to i64
  %14 = getelementptr inbounds nuw [3838 x %struct.VLCElem], ptr @qdm2_table, i64 0, i64 %13
  %15 = load ptr, ptr %6, align 8, !tbaa !93
  %16 = getelementptr inbounds nuw %struct.VLC, ptr %15, i32 0, i32 1
  store ptr %14, ptr %16, align 8, !tbaa !95
  %17 = load ptr, ptr %9, align 8, !tbaa !58
  %18 = load i32, ptr %17, align 4, !tbaa !36
  %19 = zext i32 %18 to i64
  %20 = sub i64 3838, %19
  %21 = trunc i64 %20 to i32
  %22 = load ptr, ptr %6, align 8, !tbaa !93
  %23 = getelementptr inbounds nuw %struct.VLC, ptr %22, i32 0, i32 3
  store i32 %21, ptr %23, align 4, !tbaa !98
  %24 = load ptr, ptr %6, align 8, !tbaa !93
  %25 = load i32, ptr %7, align 4, !tbaa !36
  %26 = load i32, ptr %8, align 4, !tbaa !36
  %27 = load ptr, ptr %10, align 8, !tbaa !63
  %28 = getelementptr inbounds [2 x i8], ptr %27, i64 0
  %29 = getelementptr inbounds [2 x i8], ptr %28, i64 0, i64 1
  %30 = load ptr, ptr %10, align 8, !tbaa !63
  %31 = getelementptr inbounds [2 x i8], ptr %30, i64 0
  %32 = getelementptr inbounds [2 x i8], ptr %31, i64 0, i64 0
  %33 = call i32 @ff_vlc_init_from_lengths(ptr noundef %24, i32 noundef %25, i32 noundef %26, ptr noundef %29, i32 noundef 2, ptr noundef %32, i32 noundef 2, i32 noundef 1, i32 noundef -1, i32 noundef 15, ptr noundef null)
  %34 = load ptr, ptr %6, align 8, !tbaa !93
  %35 = getelementptr inbounds nuw %struct.VLC, ptr %34, i32 0, i32 2
  %36 = load i32, ptr %35, align 8, !tbaa !99
  %37 = load ptr, ptr %9, align 8, !tbaa !58
  %38 = load i32, ptr %37, align 4, !tbaa !36
  %39 = add i32 %38, %36
  store i32 %39, ptr %37, align 4, !tbaa !36
  ret void
}