; Function Attrs: cold nounwind optsize uwtable
define internal fastcc void @build_vlc(ptr noundef initializes((8, 16), (20, 24)) %0, i32 noundef range(i32 5, 9) %1, i32 noundef range(i32 0, 256) %2, ptr noundef nonnull captures(none) %3, ptr noundef %4) unnamed_addr #0 {
  %6 = load i32, ptr %3, align 4, !tbaa !75
  %7 = zext i32 %6 to i64
  %8 = getelementptr inbounds nuw [3838 x %struct.VLCElem], ptr @qdm2_table, i64 0, i64 %7
  %9 = getelementptr inbounds nuw i8, ptr %0, i64 8
  store ptr %8, ptr %9, align 8, !tbaa !82
  %10 = sub i32 3838, %6
  %11 = getelementptr inbounds nuw i8, ptr %0, i64 20
  store i32 %10, ptr %11, align 4, !tbaa !177
  %12 = getelementptr inbounds nuw i8, ptr %4, i64 1
  %13 = tail call i32 @ff_vlc_init_from_lengths(ptr noundef %0, i32 noundef %1, i32 noundef %2, ptr noundef nonnull %12, i32 noundef 2, ptr noundef %4, i32 noundef 2, i32 noundef 1, i32 noundef -1, i32 noundef 15, ptr noundef null) #10
  %14 = getelementptr inbounds nuw i8, ptr %0, i64 16
  %15 = load i32, ptr %14, align 8, !tbaa !178
  %16 = load i32, ptr %3, align 4, !tbaa !75
  %17 = add i32 %16, %15
  store i32 %17, ptr %3, align 4, !tbaa !75
  ret void
}